target datalayout = "e-m:e-p270:32:32-p271:32:32-p272:64:64-i64:64-i128:128-f80:128-n8:16:32:64-S128"
target triple = "x86_64-pc-linux-gnu"

; Function Attrs: mustprogress uwtable
define hidden noundef i32 @_ZN3pmx9ReadIndexEPSii(ptr noundef %0, i32 noundef %1) #4 {
  %3 = alloca i32, align 4
  %4 = alloca ptr, align 8
  %5 = alloca i32, align 4
  %6 = alloca i8, align 1
  %7 = alloca i16, align 2
  %8 = alloca i32, align 4
  store ptr %0, ptr %4, align 8
  store i32 %1, ptr %5, align 4
  %9 = load i32, ptr %5, align 4
  switch i32 %9, label %34 [
    i32 1, label %10
    i32 2, label %20
    i32 4, label %30
  ]

10:                                               ; preds = %2
  %11 = load ptr, ptr %4, align 8
  %12 = call noundef nonnull align 8 dereferenceable(16) ptr @_ZNSi4readEPcl(ptr noundef nonnull align 8 dereferenceable(16) %11, ptr noundef %6, i64 noundef 1)
  %13 = load i8, ptr %6, align 1
  %14 = zext i8 %13 to i32
  %15 = icmp eq i32 255, %14
  br i1 %15, label %16, label %17

16:                                               ; preds = %10
  store i32 -1, ptr %3, align 4
  br label %35

17:                                               ; preds = %10
  %18 = load i8, ptr %6, align 1
  %19 = zext i8 %18 to i32
  store i32 %19, ptr %3, align 4
  br label %35

20:                                               ; preds = %2
  %21 = load ptr, ptr %4, align 8
  %22 = call noundef nonnull align 8 dereferenceable(16) ptr @_ZNSi4readEPcl(ptr noundef nonnull align 8 dereferenceable(16) %21, ptr noundef %7, i64 noundef 2)
  %23 = load i16, ptr %7, align 2
  %24 = zext i16 %23 to i32
  %25 = icmp eq i32 65535, %24
  br i1 %25, label %26, label %27

26:                                               ; preds = %20
  store i32 -1, ptr %3, align 4
  br label %35

27:                                               ; preds = %20
  %28 = load i16, ptr %7, align 2
  %29 = zext i16 %28 to i32
  store i32 %29, ptr %3, align 4
  br label %35

30:                                               ; preds = %2
  %31 = load ptr, ptr %4, align 8
  %32 = call noundef nonnull align 8 dereferenceable(16) ptr @_ZNSi4readEPcl(ptr noundef nonnull align 8 dereferenceable(16) %31, ptr noundef %8, i64 noundef 4)
  %33 = load i32, ptr %8, align 4
  store i32 %33, ptr %3, align 4
  br label %35

34:                                               ; preds = %2
  store i32 -1, ptr %3, align 4
  br label %35

35:                                               ; preds = %34, %30, %27, %26, %17, %16
  %36 = load i32, ptr %3, align 4
  ret i32 %36
}