; Function Attrs: mustprogress uwtable
define hidden noundef i32 @_ZN3pmx9ReadIndexEPSii(ptr noundef %0, i32 noundef %1) local_unnamed_addr #3 {
  %3 = alloca i8, align 1
  %4 = alloca i16, align 2
  %5 = alloca i32, align 4
  switch i32 %1, label %19 [
    i32 1, label %6
    i32 2, label %11
    i32 4, label %16
  ]

6:                                                ; preds = %2
  %7 = call noundef nonnull align 8 dereferenceable(16) ptr @_ZNSi4readEPcl(ptr noundef nonnull align 8 dereferenceable(16) %0, ptr noundef nonnull %3, i64 noundef 1)
  %8 = load i8, ptr %3, align 1
  %9 = icmp eq i8 %8, -1
  %10 = zext i8 %8 to i32
  %spec.select = select i1 %9, i32 -1, i32 %10
  br label %19

11:                                               ; preds = %2
  %12 = call noundef nonnull align 8 dereferenceable(16) ptr @_ZNSi4readEPcl(ptr noundef nonnull align 8 dereferenceable(16) %0, ptr noundef nonnull %4, i64 noundef 2)
  %13 = load i16, ptr %4, align 2
  %14 = icmp eq i16 %13, -1
  %15 = zext i16 %13 to i32
  %spec.select6 = select i1 %14, i32 -1, i32 %15
  br label %19

16:                                               ; preds = %2
  %17 = call noundef nonnull align 8 dereferenceable(16) ptr @_ZNSi4readEPcl(ptr noundef nonnull align 8 dereferenceable(16) %0, ptr noundef nonnull %5, i64 noundef 4)
  %18 = load i32, ptr %5, align 4
  br label %19

19:                                               ; preds = %11, %6, %2, %16
  %.0 = phi i32 [ %18, %16 ], [ -1, %2 ], [ %spec.select, %6 ], [ %spec.select6, %11 ]
  ret i32 %.0
}